; Function Attrs: nounwind uwtable
define noalias nonnull ptr @l_Lean_Elab_Tactic_BVDecide_Frontend_Normalize_shiftRight__self___lambda__1(ptr noundef %0, ptr noundef %1, ptr noundef %2, ptr readnone captures(none) %3, ptr readnone captures(none) %4, ptr readnone captures(none) %5, ptr readnone captures(none) %6, ptr readnone captures(none) %7, ptr readnone captures(none) %8, ptr readnone captures(none) %9, ptr readnone captures(none) %10, ptr noundef %11) local_unnamed_addr #0 {
  %13 = load ptr, ptr @l_Lean_Elab_Tactic_BVDecide_Frontend_Normalize_shiftRight__self___lambda__1___closed__3, align 8, !tbaa !4
  %14 = tail call ptr @l_Lean_mkAppB(ptr noundef %13, ptr noundef %0, ptr noundef %1) #5
  %15 = tail call ptr @l_BitVec_ofNat(ptr noundef %2, ptr noundef nonnull inttoptr (i64 1 to ptr)) #5
  %16 = tail call ptr @l_Lean_mkNatLit(ptr noundef %2) #5
  %17 = tail call ptr @l_Lean_mkNatLit(ptr noundef %15) #5
  %18 = load ptr, ptr @l_Lean_Elab_Tactic_BVDecide_Frontend_Normalize_bv__and___lambda__3___closed__12, align 8, !tbaa !4
  %19 = tail call ptr @l_Lean_mkAppB(ptr noundef %18, ptr noundef %16, ptr noundef %17) #5
  tail call void @lean_inc_heartbeat() #5
  %20 = tail call noalias ptr @mi_malloc_small(i64 noundef 16) #5
  %21 = icmp eq ptr %20, null
  br i1 %21, label %22, label %lean_alloc_ctor.exit

22:                                               ; preds = %12
  tail call void @lean_internal_panic_out_of_memory() #6
  unreachable

lean_alloc_ctor.exit:                             ; preds = %12
  %23 = getelementptr inbounds nuw i8, ptr %20, i64 4
  store i32 1, ptr %20, align 4, !tbaa !8
  store i32 16842768, ptr %23, align 4
  %24 = getelementptr inbounds nuw i8, ptr %20, i64 8
  store ptr %14, ptr %24, align 8, !tbaa !4
  tail call void @lean_inc_heartbeat() #5
  %25 = tail call noalias ptr @mi_malloc_small(i64 noundef 32) #5
  %26 = icmp eq ptr %25, null
  br i1 %26, label %27, label %lean_alloc_ctor.exit24

27:                                               ; preds = %lean_alloc_ctor.exit
  tail call void @lean_internal_panic_out_of_memory() #6
  unreachable

lean_alloc_ctor.exit24:                           ; preds = %lean_alloc_ctor.exit
  %28 = getelementptr inbounds nuw i8, ptr %25, i64 4
  %29 = getelementptr inbounds nuw i8, ptr %25, i64 24
  store i64 1, ptr %29, align 8, !tbaa !12
  store i32 1, ptr %25, align 4, !tbaa !8
  store i32 131104, ptr %28, align 4
  %30 = getelementptr inbounds nuw i8, ptr %25, i64 8
  store ptr %19, ptr %30, align 8, !tbaa !4
  %31 = getelementptr inbounds nuw i8, ptr %25, i64 16
  store ptr %20, ptr %31, align 8, !tbaa !4
  tail call void @lean_inc_heartbeat() #5
  %32 = tail call noalias ptr @mi_malloc_small(i64 noundef 16) #5
  %33 = icmp eq ptr %32, null
  br i1 %33, label %34, label %lean_alloc_ctor.exit25

34:                                               ; preds = %lean_alloc_ctor.exit24
  tail call void @lean_internal_panic_out_of_memory() #6
  unreachable

lean_alloc_ctor.exit25:                           ; preds = %lean_alloc_ctor.exit24
  %35 = getelementptr inbounds nuw i8, ptr %32, i64 4
  store i32 1, ptr %32, align 4, !tbaa !8
  store i32 16842768, ptr %35, align 4
  %36 = getelementptr inbounds nuw i8, ptr %32, i64 8
  store ptr %25, ptr %36, align 8, !tbaa !4
  tail call void @lean_inc_heartbeat() #5
  %37 = tail call noalias ptr @mi_malloc_small(i64 noundef 24) #5
  %38 = icmp eq ptr %37, null
  br i1 %38, label %39, label %lean_alloc_ctor.exit26

39:                                               ; preds = %lean_alloc_ctor.exit25
  tail call void @lean_internal_panic_out_of_memory() #6
  unreachable

lean_alloc_ctor.exit26:                           ; preds = %lean_alloc_ctor.exit25
  %40 = getelementptr inbounds nuw i8, ptr %37, i64 4
  store i32 1, ptr %37, align 4, !tbaa !8
  store i32 131096, ptr %40, align 4
  %41 = getelementptr inbounds nuw i8, ptr %37, i64 8
  store ptr %32, ptr %41, align 8, !tbaa !4
  %42 = getelementptr inbounds nuw i8, ptr %37, i64 16
  store ptr %11, ptr %42, align 8, !tbaa !4
  ret ptr %37
}